target datalayout = "e-m:e-p270:32:32-p271:32:32-p272:64:64-i64:64-i128:128-f80:128-n8:16:32:64-S128"
target triple = "x86_64-pc-linux-gnu"

%"class.LIEF::MachO::CodeSignature" = type { %"class.LIEF::MachO::LoadCommand", i32, i32, %"class.tcb::span" }
%"class.LIEF::MachO::LoadCommand" = type { %"class.LIEF::Object", %"class.std::vector", i64, i32, i64 }
%"class.LIEF::Object" = type { ptr }
%"class.std::vector" = type { %"struct.std::_Vector_base" }
%"struct.std::_Vector_base" = type { %"struct.std::_Vector_base<unsigned char, std::allocator<unsigned char>>::_Vector_impl" }
%"struct.std::_Vector_base<unsigned char, std::allocator<unsigned char>>::_Vector_impl" = type { %"struct.std::_Vector_base<unsigned char, std::allocator<unsigned char>>::_Vector_impl_data" }
%"struct.std::_Vector_base<unsigned char, std::allocator<unsigned char>>::_Vector_impl_data" = type { ptr, ptr, ptr }
%"class.tcb::span" = type { %"struct.tcb::detail::span_storage" }
%"struct.tcb::detail::span_storage" = type { ptr, i64 }
%"struct.std::_Setw" = type { i32 }

@.str = private unnamed_addr constant [25 x i8] c"Code Signature location:\00", align 1
@.str.1 = private unnamed_addr constant [7 x i8] c"Offset\00", align 1
@.str.2 = private unnamed_addr constant [5 x i8] c": 0x\00", align 1
@.str.3 = private unnamed_addr constant [5 x i8] c"Size\00", align 1

; Function Attrs: mustprogress nounwind uwtable
define noundef i32 @_ZNK4LIEF5MachO13CodeSignature9data_sizeEv(ptr noundef nonnull align 8 dereferenceable(80) %0) #2 align 2 {
  %2 = alloca ptr, align 8
  store ptr %0, ptr %2, align 8
  %3 = load ptr, ptr %2, align 8
  %4 = getelementptr inbounds %"class.LIEF::MachO::CodeSignature", ptr %3, i32 0, i32 2
  %5 = load i32, ptr %4, align 4
  ret i32 %5
}

; Function Attrs: mustprogress nounwind uwtable
define noundef i32 @_ZNK4LIEF5MachO13CodeSignature11data_offsetEv(ptr noundef nonnull align 8 dereferenceable(80) %0) #2 align 2 {
  %2 = alloca ptr, align 8
  store ptr %0, ptr %2, align 8
  %3 = load ptr, ptr %2, align 8
  %4 = getelementptr inbounds %"class.LIEF::MachO::CodeSignature", ptr %3, i32 0, i32 1
  %5 = load i32, ptr %4, align 8
  ret i32 %5
}

; Function Attrs: mustprogress nounwind uwtable
define linkonce_odr i32 @_ZSt4setwi(i32 noundef %0) #2 comdat {
  %2 = alloca %"struct.std::_Setw", align 4
  %3 = alloca i32, align 4
  store i32 %0, ptr %3, align 4
  %4 = getelementptr inbounds %"struct.std::_Setw", ptr %2, i32 0, i32 0
  %5 = load i32, ptr %3, align 4
  store i32 %5, ptr %4, align 4
  %6 = getelementptr inbounds %"struct.std::_Setw", ptr %2, i32 0, i32 0
  %7 = load i32, ptr %6, align 4
  ret i32 %7
}

; Function Attrs: mustprogress uwtable
define noundef nonnull align 8 dereferenceable(8) ptr @_ZNK4LIEF5MachO13CodeSignature5printERSo(ptr noundef nonnull align 8 dereferenceable(80) %0, ptr noundef nonnull align 8 dereferenceable(8) %1) unnamed_addr #0 align 2 {
  %3 = alloca ptr, align 8
  %4 = alloca ptr, align 8
  %5 = alloca %"struct.std::_Setw", align 4
  %6 = alloca %"struct.std::_Setw", align 4
  store ptr %0, ptr %3, align 8
  store ptr %1, ptr %4, align 8
  %7 = load ptr, ptr %3, align 8
  %8 = load ptr, ptr %4, align 8
  %9 = call noundef nonnull align 8 dereferenceable(8) ptr @_ZNK4LIEF5MachO11LoadCommand5printERSo(ptr noundef nonnull align 8 dereferenceable(56) %7, ptr noundef nonnull align 8 dereferenceable(8) %8)
  %10 = load ptr, ptr %4, align 8
  %11 = call noundef nonnull align 8 dereferenceable(8) ptr @_ZNSolsEPFRSt8ios_baseS0_E(ptr noundef nonnull align 8 dereferenceable(8) %10, ptr noundef @_ZSt4leftRSt8ios_base)
  %12 = load ptr, ptr %4, align 8
  %13 = call noundef nonnull align 8 dereferenceable(8) ptr @_ZNSolsEPFRSoS_E(ptr noundef nonnull align 8 dereferenceable(8) %12, ptr noundef @_ZSt4endlIcSt11char_traitsIcEERSt13basic_ostreamIT_T0_ES6_)
  %14 = load ptr, ptr %4, align 8
  %15 = call noundef nonnull align 8 dereferenceable(8) ptr @_ZStlsISt11char_traitsIcEERSt13basic_ostreamIcT_ES5_PKc(ptr noundef nonnull align 8 dereferenceable(8) %14, ptr noundef @.str)
  %16 = call noundef nonnull align 8 dereferenceable(8) ptr @_ZNSolsEPFRSoS_E(ptr noundef nonnull align 8 dereferenceable(8) %15, ptr noundef @_ZSt4endlIcSt11char_traitsIcEERSt13basic_ostreamIT_T0_ES6_)
  %17 = load ptr, ptr %4, align 8
  %18 = call i32 @_ZSt4setwi(i32 noundef 8)
  %19 = getelementptr inbounds %"struct.std::_Setw", ptr %5, i32 0, i32 0
  store i32 %18, ptr %19, align 4
  %20 = getelementptr inbounds %"struct.std::_Setw", ptr %5, i32 0, i32 0
  %21 = load i32, ptr %20, align 4
  %22 = call noundef nonnull align 8 dereferenceable(8) ptr @_ZStlsIcSt11char_traitsIcEERSt13basic_ostreamIT_T0_ES6_St5_Setw(ptr noundef nonnull align 8 dereferenceable(8) %17, i32 %21)
  %23 = call noundef nonnull align 8 dereferenceable(8) ptr @_ZStlsISt11char_traitsIcEERSt13basic_ostreamIcT_ES5_PKc(ptr noundef nonnull align 8 dereferenceable(8) %22, ptr noundef @.str.1)
  %24 = call noundef nonnull align 8 dereferenceable(8) ptr @_ZStlsISt11char_traitsIcEERSt13basic_ostreamIcT_ES5_PKc(ptr noundef nonnull align 8 dereferenceable(8) %23, ptr noundef @.str.2)
  %25 = call noundef i32 @_ZNK4LIEF5MachO13CodeSignature11data_offsetEv(ptr noundef nonnull align 8 dereferenceable(80) %7)
  %26 = call noundef nonnull align 8 dereferenceable(8) ptr @_ZNSolsEj(ptr noundef nonnull align 8 dereferenceable(8) %24, i32 noundef %25)
  %27 = call noundef nonnull align 8 dereferenceable(8) ptr @_ZNSolsEPFRSoS_E(ptr noundef nonnull align 8 dereferenceable(8) %26, ptr noundef @_ZSt4endlIcSt11char_traitsIcEERSt13basic_ostreamIT_T0_ES6_)
  %28 = load ptr, ptr %4, align 8
  %29 = call i32 @_ZSt4setwi(i32 noundef 8)
  %30 = getelementptr inbounds %"struct.std::_Setw", ptr %6, i32 0, i32 0
  store i32 %29, ptr %30, align 4
  %31 = getelementptr inbounds %"struct.std::_Setw", ptr %6, i32 0, i32 0
  %32 = load i32, ptr %31, align 4
  %33 = call noundef nonnull align 8 dereferenceable(8) ptr @_ZStlsIcSt11char_traitsIcEERSt13basic_ostreamIT_T0_ES6_St5_Setw(ptr noundef nonnull align 8 dereferenceable(8) %28, i32 %32)
  %34 = call noundef nonnull align 8 dereferenceable(8) ptr @_ZStlsISt11char_traitsIcEERSt13basic_ostreamIcT_ES5_PKc(ptr noundef nonnull align 8 dereferenceable(8) %33, ptr noundef @.str.3)
  %35 = call noundef nonnull align 8 dereferenceable(8) ptr @_ZStlsISt11char_traitsIcEERSt13basic_ostreamIcT_ES5_PKc(ptr noundef nonnull align 8 dereferenceable(8) %34, ptr noundef @.str.2)
  %36 = call noundef i32 @_ZNK4LIEF5MachO13CodeSignature9data_sizeEv(ptr noundef nonnull align 8 dereferenceable(80) %7)
  %37 = call noundef nonnull align 8 dereferenceable(8) ptr @_ZNSolsEj(ptr noundef nonnull align 8 dereferenceable(8) %35, i32 noundef %36)
  %38 = call noundef nonnull align 8 dereferenceable(8) ptr @_ZNSolsEPFRSoS_E(ptr noundef nonnull align 8 dereferenceable(8) %37, ptr noundef @_ZSt4endlIcSt11char_traitsIcEERSt13basic_ostreamIT_T0_ES6_)
  %39 = load ptr, ptr %4, align 8
  ret ptr %39
}